; Function Attrs: nounwind sspstrong uwtable
define internal noundef i64 @first_i(i64 noundef %0, i64 noundef %1, i32 %2, ptr readnone captures(none) %3, i64 %4) #0 {
  %6 = inttoptr i64 %1 to ptr
  %7 = load i64, ptr %6, align 8, !tbaa !7
  %8 = and i64 %7, 1
  %.not.i = icmp eq i64 %8, 0
  br i1 %.not.i, label %11, label %9

9:                                                ; preds = %5
  %10 = ashr i64 %7, 1
  br label %rb_num2long_inline.exit

11:                                               ; preds = %5
  %12 = tail call i64 @rb_num2long(i64 noundef %7) #13
  br label %rb_num2long_inline.exit

rb_num2long_inline.exit:                          ; preds = %9, %11
  %.0.i = phi i64 [ %10, %9 ], [ %12, %11 ]
  %13 = icmp slt i64 %.0.i, 1
  br i1 %13, label %14, label %15

14:                                               ; preds = %rb_num2long_inline.exit
  tail call void @rb_iter_break() #14
  unreachable

15:                                               ; preds = %rb_num2long_inline.exit
  %16 = getelementptr i8, ptr %6, i64 8
  %17 = load i64, ptr %16, align 8, !tbaa !7
  %18 = tail call i64 @rb_ary_push(i64 noundef %17, i64 noundef %0) #13
  %19 = add nsw i64 %.0.i, -1
  %20 = add nuw i64 %.0.i, 4611686018427387903
  %or.cond.i = icmp sgt i64 %20, -1
  br i1 %or.cond.i, label %21, label %24

21:                                               ; preds = %15
  %22 = shl nuw nsw i64 %19, 1
  %23 = or disjoint i64 %22, 1
  br label %rb_long2num_inline.exit

24:                                               ; preds = %15
  %25 = tail call i64 @rb_int2big(i64 noundef %19) #13
  br label %rb_long2num_inline.exit

rb_long2num_inline.exit:                          ; preds = %21, %24
  %.0.i7 = phi i64 [ %23, %21 ], [ %25, %24 ]
  store i64 %.0.i7, ptr %6, align 8, !tbaa !7
  ret i64 4
}